target datalayout = "e-m:e-p270:32:32-p271:32:32-p272:64:64-i64:64-i128:128-f80:128-n8:16:32:64-S128"
target triple = "x86_64-pc-linux-gnu"

@s_Truths6 = internal global [6 x i64] [i64 -6148914691236517206, i64 -3689348814741910324, i64 -1085102592571150096, i64 -71777214294589696, i64 -281470681808896, i64 -4294967296], align 16

; Function Attrs: inlinehint nounwind uwtable
define internal i32 @Abc_TtCanonicizePhaseVar5(ptr noundef %0, i32 noundef %1, i32 noundef %2) #2 {
  %4 = alloca i32, align 4
  %5 = alloca ptr, align 8
  %6 = alloca i32, align 4
  %7 = alloca i32, align 4
  %8 = alloca i32, align 4
  %9 = alloca i32, align 4
  %10 = alloca i32, align 4
  %11 = alloca i64, align 8
  %12 = alloca i32, align 4
  store ptr %0, ptr %5, align 8, !tbaa !3
  store i32 %1, ptr %6, align 4, !tbaa !8
  store i32 %2, ptr %7, align 4, !tbaa !8
  call void @llvm.lifetime.start.p0(i64 4, ptr %8) #12
  call void @llvm.lifetime.start.p0(i64 4, ptr %9) #12
  %13 = load i32, ptr %6, align 4, !tbaa !8
  %14 = call i32 @Abc_TtWordNum(i32 noundef %13)
  store i32 %14, ptr %9, align 4, !tbaa !8
  call void @llvm.lifetime.start.p0(i64 4, ptr %10) #12
  %15 = load i32, ptr %7, align 4, !tbaa !8
  %16 = shl i32 1, %15
  store i32 %16, ptr %10, align 4, !tbaa !8
  call void @llvm.lifetime.start.p0(i64 8, ptr %11) #12
  %17 = load i32, ptr %7, align 4, !tbaa !8
  %18 = sext i32 %17 to i64
  %19 = getelementptr inbounds [6 x i64], ptr @s_Truths6, i64 0, i64 %18
  %20 = load i64, ptr %19, align 8, !tbaa !10
  store i64 %20, ptr %11, align 8, !tbaa !10
  %21 = load i32, ptr %9, align 4, !tbaa !8
  %22 = sub nsw i32 %21, 1
  store i32 %22, ptr %8, align 4, !tbaa !8
  br label %23

23:                                               ; preds = %100, %3
  %24 = load i32, ptr %8, align 4, !tbaa !8
  %25 = icmp sge i32 %24, 0
  br i1 %25, label %26, label %103

26:                                               ; preds = %23
  %27 = load ptr, ptr %5, align 8, !tbaa !3
  %28 = load i32, ptr %8, align 4, !tbaa !8
  %29 = sext i32 %28 to i64
  %30 = getelementptr inbounds i64, ptr %27, i64 %29
  %31 = load i64, ptr %30, align 8, !tbaa !10
  %32 = load i32, ptr %10, align 4, !tbaa !8
  %33 = zext i32 %32 to i64
  %34 = shl i64 %31, %33
  %35 = load i64, ptr %11, align 8, !tbaa !10
  %36 = and i64 %34, %35
  %37 = load ptr, ptr %5, align 8, !tbaa !3
  %38 = load i32, ptr %8, align 4, !tbaa !8
  %39 = sext i32 %38 to i64
  %40 = getelementptr inbounds i64, ptr %37, i64 %39
  %41 = load i64, ptr %40, align 8, !tbaa !10
  %42 = load i64, ptr %11, align 8, !tbaa !10
  %43 = and i64 %41, %42
  %44 = icmp eq i64 %36, %43
  br i1 %44, label %45, label %46

45:                                               ; preds = %26
  br label %100

46:                                               ; preds = %26
  %47 = load ptr, ptr %5, align 8, !tbaa !3
  %48 = load i32, ptr %8, align 4, !tbaa !8
  %49 = sext i32 %48 to i64
  %50 = getelementptr inbounds i64, ptr %47, i64 %49
  %51 = load i64, ptr %50, align 8, !tbaa !10
  %52 = load i32, ptr %10, align 4, !tbaa !8
  %53 = zext i32 %52 to i64
  %54 = shl i64 %51, %53
  %55 = load i64, ptr %11, align 8, !tbaa !10
  %56 = and i64 %54, %55
  %57 = load ptr, ptr %5, align 8, !tbaa !3
  %58 = load i32, ptr %8, align 4, !tbaa !8
  %59 = sext i32 %58 to i64
  %60 = getelementptr inbounds i64, ptr %57, i64 %59
  %61 = load i64, ptr %60, align 8, !tbaa !10
  %62 = load i64, ptr %11, align 8, !tbaa !10
  %63 = and i64 %61, %62
  %64 = icmp ugt i64 %56, %63
  br i1 %64, label %65, label %66

65:                                               ; preds = %46
  store i32 -1, ptr %4, align 4
  store i32 1, ptr %12, align 4
  br label %104

66:                                               ; preds = %46
  br label %67

67:                                               ; preds = %96, %66
  %68 = load i32, ptr %8, align 4, !tbaa !8
  %69 = icmp sge i32 %68, 0
  br i1 %69, label %70, label %99

70:                                               ; preds = %67
  %71 = load ptr, ptr %5, align 8, !tbaa !3
  %72 = load i32, ptr %8, align 4, !tbaa !8
  %73 = sext i32 %72 to i64
  %74 = getelementptr inbounds i64, ptr %71, i64 %73
  %75 = load i64, ptr %74, align 8, !tbaa !10
  %76 = load i32, ptr %10, align 4, !tbaa !8
  %77 = zext i32 %76 to i64
  %78 = shl i64 %75, %77
  %79 = load i64, ptr %11, align 8, !tbaa !10
  %80 = and i64 %78, %79
  %81 = load ptr, ptr %5, align 8, !tbaa !3
  %82 = load i32, ptr %8, align 4, !tbaa !8
  %83 = sext i32 %82 to i64
  %84 = getelementptr inbounds i64, ptr %81, i64 %83
  %85 = load i64, ptr %84, align 8, !tbaa !10
  %86 = load i64, ptr %11, align 8, !tbaa !10
  %87 = and i64 %85, %86
  %88 = load i32, ptr %10, align 4, !tbaa !8
  %89 = zext i32 %88 to i64
  %90 = lshr i64 %87, %89
  %91 = or i64 %80, %90
  %92 = load ptr, ptr %5, align 8, !tbaa !3
  %93 = load i32, ptr %8, align 4, !tbaa !8
  %94 = sext i32 %93 to i64
  %95 = getelementptr inbounds i64, ptr %92, i64 %94
  store i64 %91, ptr %95, align 8, !tbaa !10
  br label %96

96:                                               ; preds = %70
  %97 = load i32, ptr %8, align 4, !tbaa !8
  %98 = add nsw i32 %97, -1
  store i32 %98, ptr %8, align 4, !tbaa !8
  br label %67, !llvm.loop !72

99:                                               ; preds = %67
  store i32 1, ptr %4, align 4
  store i32 1, ptr %12, align 4
  br label %104

100:                                              ; preds = %45
  %101 = load i32, ptr %8, align 4, !tbaa !8
  %102 = add nsw i32 %101, -1
  store i32 %102, ptr %8, align 4, !tbaa !8
  br label %23, !llvm.loop !73

103:                                              ; preds = %23
  store i32 0, ptr %4, align 4
  store i32 1, ptr %12, align 4
  br label %104

104:                                              ; preds = %103, %99, %65
  call void @llvm.lifetime.end.p0(i64 8, ptr %11) #12
  call void @llvm.lifetime.end.p0(i64 4, ptr %10) #12
  call void @llvm.lifetime.end.p0(i64 4, ptr %9) #12
  call void @llvm.lifetime.end.p0(i64 4, ptr %8) #12
  %105 = load i32, ptr %4, align 4
  ret i32 %105
}

; Function Attrs: inlinehint nounwind uwtable
define internal i32 @Abc_TtCanonicizePhaseVar6(ptr noundef %0, i32 noundef %1, i32 noundef %2) #2 {
  %4 = alloca i32, align 4
  %5 = alloca ptr, align 8
  %6 = alloca i32, align 4
  %7 = alloca i32, align 4
  %8 = alloca i32, align 4
  %9 = alloca i32, align 4
  %10 = alloca i32, align 4
  %11 = alloca i32, align 4
  %12 = alloca i32, align 4
  %13 = alloca i64, align 8
  store ptr %0, ptr %5, align 8, !tbaa !3
  store i32 %1, ptr %6, align 4, !tbaa !8
  store i32 %2, ptr %7, align 4, !tbaa !8
  call void @llvm.lifetime.start.p0(i64 4, ptr %8) #12
  call void @llvm.lifetime.start.p0(i64 4, ptr %9) #12
  %14 = load i32, ptr %6, align 4, !tbaa !8
  %15 = call i32 @Abc_TtWordNum(i32 noundef %14)
  store i32 %15, ptr %9, align 4, !tbaa !8
  call void @llvm.lifetime.start.p0(i64 4, ptr %10) #12
  call void @llvm.lifetime.start.p0(i64 4, ptr %11) #12
  %16 = load i32, ptr %7, align 4, !tbaa !8
  %17 = sub nsw i32 %16, 6
  %18 = shl i32 1, %17
  store i32 %18, ptr %11, align 4, !tbaa !8
  %19 = load i32, ptr %9, align 4, !tbaa !8
  %20 = sub nsw i32 %19, 1
  store i32 %20, ptr %8, align 4, !tbaa !8
  %21 = load i32, ptr %9, align 4, !tbaa !8
  %22 = load i32, ptr %11, align 4, !tbaa !8
  %23 = sub nsw i32 %21, %22
  store i32 %23, ptr %10, align 4, !tbaa !8
  br label %24

24:                                               ; preds = %111, %3
  %25 = load i32, ptr %8, align 4, !tbaa !8
  %26 = icmp sgt i32 %25, 0
  br i1 %26, label %27, label %114

27:                                               ; preds = %24
  %28 = load ptr, ptr %5, align 8, !tbaa !3
  %29 = load i32, ptr %8, align 4, !tbaa !8
  %30 = load i32, ptr %11, align 4, !tbaa !8
  %31 = sub nsw i32 %29, %30
  %32 = sext i32 %31 to i64
  %33 = getelementptr inbounds i64, ptr %28, i64 %32
  %34 = load i64, ptr %33, align 8, !tbaa !10
  %35 = load ptr, ptr %5, align 8, !tbaa !3
  %36 = load i32, ptr %8, align 4, !tbaa !8
  %37 = sext i32 %36 to i64
  %38 = getelementptr inbounds i64, ptr %35, i64 %37
  %39 = load i64, ptr %38, align 8, !tbaa !10
  %40 = icmp eq i64 %34, %39
  br i1 %40, label %41, label %53

41:                                               ; preds = %27
  %42 = load i32, ptr %8, align 4, !tbaa !8
  %43 = load i32, ptr %10, align 4, !tbaa !8
  %44 = icmp eq i32 %42, %43
  br i1 %44, label %45, label %52

45:                                               ; preds = %41
  %46 = load i32, ptr %10, align 4, !tbaa !8
  %47 = load i32, ptr %11, align 4, !tbaa !8
  %48 = sub nsw i32 %46, %47
  store i32 %48, ptr %8, align 4, !tbaa !8
  %49 = load i32, ptr %8, align 4, !tbaa !8
  %50 = load i32, ptr %11, align 4, !tbaa !8
  %51 = sub nsw i32 %49, %50
  store i32 %51, ptr %10, align 4, !tbaa !8
  br label %52

52:                                               ; preds = %45, %41
  br label %111

53:                                               ; preds = %27
  %54 = load ptr, ptr %5, align 8, !tbaa !3
  %55 = load i32, ptr %8, align 4, !tbaa !8
  %56 = load i32, ptr %11, align 4, !tbaa !8
  %57 = sub nsw i32 %55, %56
  %58 = sext i32 %57 to i64
  %59 = getelementptr inbounds i64, ptr %54, i64 %58
  %60 = load i64, ptr %59, align 8, !tbaa !10
  %61 = load ptr, ptr %5, align 8, !tbaa !3
  %62 = load i32, ptr %8, align 4, !tbaa !8
  %63 = sext i32 %62 to i64
  %64 = getelementptr inbounds i64, ptr %61, i64 %63
  %65 = load i64, ptr %64, align 8, !tbaa !10
  %66 = icmp ugt i64 %60, %65
  br i1 %66, label %67, label %68

67:                                               ; preds = %53
  store i32 -1, ptr %4, align 4
  store i32 1, ptr %12, align 4
  br label %115

68:                                               ; preds = %53
  br label %69

69:                                               ; preds = %107, %68
  %70 = load i32, ptr %8, align 4, !tbaa !8
  %71 = icmp sgt i32 %70, 0
  br i1 %71, label %72, label %110

72:                                               ; preds = %69
  call void @llvm.lifetime.start.p0(i64 8, ptr %13) #12
  %73 = load ptr, ptr %5, align 8, !tbaa !3
  %74 = load i32, ptr %8, align 4, !tbaa !8
  %75 = load i32, ptr %11, align 4, !tbaa !8
  %76 = sub nsw i32 %74, %75
  %77 = sext i32 %76 to i64
  %78 = getelementptr inbounds i64, ptr %73, i64 %77
  %79 = load i64, ptr %78, align 8, !tbaa !10
  store i64 %79, ptr %13, align 8, !tbaa !10
  %80 = load ptr, ptr %5, align 8, !tbaa !3
  %81 = load i32, ptr %8, align 4, !tbaa !8
  %82 = sext i32 %81 to i64
  %83 = getelementptr inbounds i64, ptr %80, i64 %82
  %84 = load i64, ptr %83, align 8, !tbaa !10
  %85 = load ptr, ptr %5, align 8, !tbaa !3
  %86 = load i32, ptr %8, align 4, !tbaa !8
  %87 = load i32, ptr %11, align 4, !tbaa !8
  %88 = sub nsw i32 %86, %87
  %89 = sext i32 %88 to i64
  %90 = getelementptr inbounds i64, ptr %85, i64 %89
  store i64 %84, ptr %90, align 8, !tbaa !10
  %91 = load i64, ptr %13, align 8, !tbaa !10
  %92 = load ptr, ptr %5, align 8, !tbaa !3
  %93 = load i32, ptr %8, align 4, !tbaa !8
  %94 = sext i32 %93 to i64
  %95 = getelementptr inbounds i64, ptr %92, i64 %94
  store i64 %91, ptr %95, align 8, !tbaa !10
  call void @llvm.lifetime.end.p0(i64 8, ptr %13) #12
  %96 = load i32, ptr %8, align 4, !tbaa !8
  %97 = load i32, ptr %10, align 4, !tbaa !8
  %98 = icmp eq i32 %96, %97
  br i1 %98, label %99, label %106

99:                                               ; preds = %72
  %100 = load i32, ptr %10, align 4, !tbaa !8
  %101 = load i32, ptr %11, align 4, !tbaa !8
  %102 = sub nsw i32 %100, %101
  store i32 %102, ptr %8, align 4, !tbaa !8
  %103 = load i32, ptr %8, align 4, !tbaa !8
  %104 = load i32, ptr %11, align 4, !tbaa !8
  %105 = sub nsw i32 %103, %104
  store i32 %105, ptr %10, align 4, !tbaa !8
  br label %106

106:                                              ; preds = %99, %72
  br label %107

107:                                              ; preds = %106
  %108 = load i32, ptr %8, align 4, !tbaa !8
  %109 = add nsw i32 %108, -1
  store i32 %109, ptr %8, align 4, !tbaa !8
  br label %69, !llvm.loop !70

110:                                              ; preds = %69
  store i32 1, ptr %4, align 4
  store i32 1, ptr %12, align 4
  br label %115

111:                                              ; preds = %52
  %112 = load i32, ptr %8, align 4, !tbaa !8
  %113 = add nsw i32 %112, -1
  store i32 %113, ptr %8, align 4, !tbaa !8
  br label %24, !llvm.loop !71

114:                                              ; preds = %24
  store i32 0, ptr %4, align 4
  store i32 1, ptr %12, align 4
  br label %115

115:                                              ; preds = %114, %110, %67
  call void @llvm.lifetime.end.p0(i64 4, ptr %11) #12
  call void @llvm.lifetime.end.p0(i64 4, ptr %10) #12
  call void @llvm.lifetime.end.p0(i64 4, ptr %9) #12
  call void @llvm.lifetime.end.p0(i64 4, ptr %8) #12
  %116 = load i32, ptr %4, align 4
  ret i32 %116
}

; Function Attrs: inlinehint nounwind uwtable
define internal void @Abc_TtNot(ptr noundef %0, i32 noundef %1) #2 {
  %3 = alloca ptr, align 8
  %4 = alloca i32, align 4
  %5 = alloca i32, align 4
  store ptr %0, ptr %3, align 8, !tbaa !3
  store i32 %1, ptr %4, align 4, !tbaa !8
  call void @llvm.lifetime.start.p0(i64 4, ptr %5) #12
  store i32 0, ptr %5, align 4, !tbaa !8
  br label %6

6:                                                ; preds = %21, %2
  %7 = load i32, ptr %5, align 4, !tbaa !8
  %8 = load i32, ptr %4, align 4, !tbaa !8
  %9 = icmp slt i32 %7, %8
  br i1 %9, label %10, label %24

10:                                               ; preds = %6
  %11 = load ptr, ptr %3, align 8, !tbaa !3
  %12 = load i32, ptr %5, align 4, !tbaa !8
  %13 = sext i32 %12 to i64
  %14 = getelementptr inbounds i64, ptr %11, i64 %13
  %15 = load i64, ptr %14, align 8, !tbaa !10
  %16 = xor i64 %15, -1
  %17 = load ptr, ptr %3, align 8, !tbaa !3
  %18 = load i32, ptr %5, align 4, !tbaa !8
  %19 = sext i32 %18 to i64
  %20 = getelementptr inbounds i64, ptr %17, i64 %19
  store i64 %16, ptr %20, align 8, !tbaa !10
  br label %21

21:                                               ; preds = %10
  %22 = load i32, ptr %5, align 4, !tbaa !8
  %23 = add nsw i32 %22, 1
  store i32 %23, ptr %5, align 4, !tbaa !8
  br label %6, !llvm.loop !69

24:                                               ; preds = %6
  call void @llvm.lifetime.end.p0(i64 4, ptr %5) #12
  ret void
}

; Function Attrs: inlinehint nounwind uwtable
define internal i32 @Abc_TtWordNum(i32 noundef %0) #2 {
  %2 = alloca i32, align 4
  store i32 %0, ptr %2, align 4, !tbaa !8
  %3 = load i32, ptr %2, align 4, !tbaa !8
  %4 = icmp sle i32 %3, 6
  br i1 %4, label %5, label %6

5:                                                ; preds = %1
  br label %10

6:                                                ; preds = %1
  %7 = load i32, ptr %2, align 4, !tbaa !8
  %8 = sub nsw i32 %7, 6
  %9 = shl i32 1, %8
  br label %10

10:                                               ; preds = %6, %5
  %11 = phi i32 [ 1, %5 ], [ %9, %6 ]
  ret i32 %11
}

; Function Attrs: nounwind uwtable
define i32 @Abc_TtCanonicizePhase(ptr noundef %0, i32 noundef %1) #0 {
  %3 = alloca ptr, align 8
  %4 = alloca i32, align 4
  %5 = alloca i32, align 4
  %6 = alloca i32, align 4
  %7 = alloca i32, align 4
  store ptr %0, ptr %3, align 8, !tbaa !3
  store i32 %1, ptr %4, align 4, !tbaa !8
  call void @llvm.lifetime.start.p0(i64 4, ptr %5) #12
  store i32 0, ptr %5, align 4, !tbaa !8
  call void @llvm.lifetime.start.p0(i64 4, ptr %6) #12
  call void @llvm.lifetime.start.p0(i64 4, ptr %7) #12
  %8 = load i32, ptr %4, align 4, !tbaa !8
  %9 = call i32 @Abc_TtWordNum(i32 noundef %8)
  store i32 %9, ptr %7, align 4, !tbaa !8
  %10 = load ptr, ptr %3, align 8, !tbaa !3
  %11 = load i32, ptr %7, align 4, !tbaa !8
  %12 = sub nsw i32 %11, 1
  %13 = sext i32 %12 to i64
  %14 = getelementptr inbounds i64, ptr %10, i64 %13
  %15 = load i64, ptr %14, align 8, !tbaa !10
  %16 = lshr i64 %15, 63
  %17 = and i64 %16, 1
  %18 = icmp ne i64 %17, 0
  br i1 %18, label %19, label %26

19:                                               ; preds = %2
  %20 = load ptr, ptr %3, align 8, !tbaa !3
  %21 = load i32, ptr %7, align 4, !tbaa !8
  call void @Abc_TtNot(ptr noundef %20, i32 noundef %21)
  %22 = load i32, ptr %4, align 4, !tbaa !8
  %23 = shl i32 1, %22
  %24 = load i32, ptr %5, align 4, !tbaa !8
  %25 = xor i32 %24, %23
  store i32 %25, ptr %5, align 4, !tbaa !8
  br label %26

26:                                               ; preds = %19, %2
  %27 = load i32, ptr %4, align 4, !tbaa !8
  %28 = sub nsw i32 %27, 1
  store i32 %28, ptr %6, align 4, !tbaa !8
  br label %29

29:                                               ; preds = %44, %26
  %30 = load i32, ptr %6, align 4, !tbaa !8
  %31 = icmp sge i32 %30, 6
  br i1 %31, label %32, label %47

32:                                               ; preds = %29
  %33 = load ptr, ptr %3, align 8, !tbaa !3
  %34 = load i32, ptr %4, align 4, !tbaa !8
  %35 = load i32, ptr %6, align 4, !tbaa !8
  %36 = call i32 @Abc_TtCanonicizePhaseVar6(ptr noundef %33, i32 noundef %34, i32 noundef %35)
  %37 = icmp eq i32 %36, 1
  br i1 %37, label %38, label %43

38:                                               ; preds = %32
  %39 = load i32, ptr %6, align 4, !tbaa !8
  %40 = shl i32 1, %39
  %41 = load i32, ptr %5, align 4, !tbaa !8
  %42 = xor i32 %41, %40
  store i32 %42, ptr %5, align 4, !tbaa !8
  br label %43

43:                                               ; preds = %38, %32
  br label %44

44:                                               ; preds = %43
  %45 = load i32, ptr %6, align 4, !tbaa !8
  %46 = add nsw i32 %45, -1
  store i32 %46, ptr %6, align 4, !tbaa !8
  br label %29, !llvm.loop !67

47:                                               ; preds = %29
  br label %48

48:                                               ; preds = %63, %47
  %49 = load i32, ptr %6, align 4, !tbaa !8
  %50 = icmp sge i32 %49, 0
  br i1 %50, label %51, label %66

51:                                               ; preds = %48
  %52 = load ptr, ptr %3, align 8, !tbaa !3
  %53 = load i32, ptr %4, align 4, !tbaa !8
  %54 = load i32, ptr %6, align 4, !tbaa !8
  %55 = call i32 @Abc_TtCanonicizePhaseVar5(ptr noundef %52, i32 noundef %53, i32 noundef %54)
  %56 = icmp eq i32 %55, 1
  br i1 %56, label %57, label %62

57:                                               ; preds = %51
  %58 = load i32, ptr %6, align 4, !tbaa !8
  %59 = shl i32 1, %58
  %60 = load i32, ptr %5, align 4, !tbaa !8
  %61 = xor i32 %60, %59
  store i32 %61, ptr %5, align 4, !tbaa !8
  br label %62

62:                                               ; preds = %57, %51
  br label %63

63:                                               ; preds = %62
  %64 = load i32, ptr %6, align 4, !tbaa !8
  %65 = add nsw i32 %64, -1
  store i32 %65, ptr %6, align 4, !tbaa !8
  br label %48, !llvm.loop !68

66:                                               ; preds = %48
  %67 = load i32, ptr %5, align 4, !tbaa !8
  call void @llvm.lifetime.end.p0(i64 4, ptr %7) #12
  call void @llvm.lifetime.end.p0(i64 4, ptr %6) #12
  call void @llvm.lifetime.end.p0(i64 4, ptr %5) #12
  ret i32 %67
}