; Function Attrs: nofree norecurse nosync nounwind memory(argmem: readwrite) uwtable
define i32 @Abc_TtCanonicizePhase(ptr noundef captures(none) %0, i32 noundef %1) local_unnamed_addr #0 {
  %3 = icmp slt i32 %1, 7
  %4 = add nsw i32 %1, -6
  %5 = shl nuw i32 1, %4
  %6 = select i1 %3, i32 1, i32 %5
  %7 = sext i32 %6 to i64
  %8 = getelementptr i64, ptr %0, i64 %7
  %9 = getelementptr i8, ptr %8, i64 -8
  %10 = load i64, ptr %9, align 8, !tbaa !3
  %.not = icmp sgt i64 %10, -1
  br i1 %.not, label %17, label %11

11:                                               ; preds = %2
  %12 = icmp sgt i32 %6, 0
  br i1 %12, label %.lr.ph.preheader.i, label %Abc_TtNot.exit

.lr.ph.preheader.i:                               ; preds = %11
  %wide.trip.count.i = zext nneg i32 %6 to i64
  br label %.lr.ph.i

.lr.ph.i:                                         ; preds = %.lr.ph.i, %.lr.ph.preheader.i
  %indvars.iv.i = phi i64 [ 0, %.lr.ph.preheader.i ], [ %indvars.iv.next.i, %.lr.ph.i ]
  %13 = getelementptr inbounds nuw i64, ptr %0, i64 %indvars.iv.i
  %14 = load i64, ptr %13, align 8, !tbaa !3
  %15 = xor i64 %14, -1
  store i64 %15, ptr %13, align 8, !tbaa !3
  %indvars.iv.next.i = add nuw nsw i64 %indvars.iv.i, 1
  %exitcond.not.i = icmp eq i64 %indvars.iv.next.i, %wide.trip.count.i
  br i1 %exitcond.not.i, label %Abc_TtNot.exit, label %.lr.ph.i, !llvm.loop !48

Abc_TtNot.exit:                                   ; preds = %.lr.ph.i, %11
  %16 = shl nuw i32 1, %1
  br label %17

17:                                               ; preds = %Abc_TtNot.exit, %2
  %.0 = phi i32 [ %16, %Abc_TtNot.exit ], [ 0, %2 ]
  %.02237 = add nsw i32 %1, -1
  %18 = icmp sgt i32 %1, 6
  br i1 %18, label %.lr.ph, label %.preheader

.lr.ph:                                           ; preds = %17
  %19 = icmp sgt i32 %5, 1
  br i1 %19, label %.lr.ph.preheader.i24.us, label %.lr.ph45

.lr.ph.preheader.i24.us:                          ; preds = %.lr.ph, %Abc_TtCanonicizePhaseVar6.exit.thread.us
  %.02240.us = phi i32 [ %.022.us, %Abc_TtCanonicizePhaseVar6.exit.thread.us ], [ %.02237, %.lr.ph ]
  %.139.us = phi i32 [ %53, %Abc_TtCanonicizePhaseVar6.exit.thread.us ], [ %.0, %.lr.ph ]
  %.022.in38.us = phi i32 [ %.02240.us, %Abc_TtCanonicizePhaseVar6.exit.thread.us ], [ %1, %.lr.ph ]
  %20 = add nsw i32 %.022.in38.us, -7
  %21 = shl nuw i32 1, %20
  %22 = sub nsw i32 %6, %21
  br label %.lr.ph.i25.us

.lr.ph.i25.us:                                    ; preds = %48, %.lr.ph.preheader.i24.us
  %.04255.in.i.us = phi i32 [ %.1.i.us, %48 ], [ %5, %.lr.ph.preheader.i24.us ]
  %.04354.i.us = phi i32 [ %.144.i.us, %48 ], [ %22, %.lr.ph.preheader.i24.us ]
  %.04255.i.us = add nsw i32 %.04255.in.i.us, -1
  %23 = sub nsw i32 %.04255.i.us, %21
  %24 = sext i32 %23 to i64
  %25 = getelementptr inbounds i64, ptr %0, i64 %24
  %26 = load i64, ptr %25, align 8, !tbaa !3
  %27 = zext nneg i32 %.04255.i.us to i64
  %28 = getelementptr inbounds nuw i64, ptr %0, i64 %27
  %29 = load i64, ptr %28, align 8, !tbaa !3
  %30 = icmp eq i64 %26, %29
  br i1 %30, label %48, label %31

31:                                               ; preds = %.lr.ph.i25.us
  %32 = icmp ugt i64 %26, %29
  br i1 %32, label %Abc_TtCanonicizePhaseVar6.exit.thread.us, label %.lr.ph58.i.us

.lr.ph58.i.us:                                    ; preds = %31, %.lr.ph58.i.us
  %.257.i.us = phi i32 [ %43, %.lr.ph58.i.us ], [ %.04255.i.us, %31 ]
  %.24556.i.us = phi i32 [ %.346.i.us, %.lr.ph58.i.us ], [ %.04354.i.us, %31 ]
  %33 = sub nsw i32 %.257.i.us, %21
  %34 = sext i32 %33 to i64
  %35 = getelementptr inbounds i64, ptr %0, i64 %34
  %36 = load i64, ptr %35, align 8, !tbaa !3
  %37 = zext nneg i32 %.257.i.us to i64
  %38 = getelementptr inbounds nuw i64, ptr %0, i64 %37
  %39 = load i64, ptr %38, align 8, !tbaa !3
  store i64 %39, ptr %35, align 8, !tbaa !3
  store i64 %36, ptr %38, align 8, !tbaa !3
  %40 = icmp eq i32 %.257.i.us, %.24556.i.us
  %41 = sub nsw i32 %.24556.i.us, %21
  %42 = sub nsw i32 %41, %21
  %.346.i.us = select i1 %40, i32 %42, i32 %.24556.i.us
  %.3.i.us = select i1 %40, i32 %41, i32 %.257.i.us
  %43 = add nsw i32 %.3.i.us, -1
  %44 = icmp sgt i32 %.3.i.us, 1
  br i1 %44, label %.lr.ph58.i.us, label %45, !llvm.loop !56

45:                                               ; preds = %.lr.ph58.i.us
  %46 = shl nuw i32 1, %.02240.us
  %47 = xor i32 %46, %.139.us
  br label %Abc_TtCanonicizePhaseVar6.exit.thread.us

48:                                               ; preds = %.lr.ph.i25.us
  %49 = icmp eq i32 %.04255.i.us, %.04354.i.us
  %50 = sub nsw i32 %.04354.i.us, %21
  %51 = sub nsw i32 %50, %21
  %.144.i.us = select i1 %49, i32 %51, i32 %.04354.i.us
  %.1.i.us = select i1 %49, i32 %50, i32 %.04255.i.us
  %52 = icmp sgt i32 %.1.i.us, 1
  br i1 %52, label %.lr.ph.i25.us, label %Abc_TtCanonicizePhaseVar6.exit.thread.us, !llvm.loop !57

Abc_TtCanonicizePhaseVar6.exit.thread.us:         ; preds = %48, %45, %31
  %53 = phi i32 [ %47, %45 ], [ %.139.us, %31 ], [ %.139.us, %48 ]
  %.022.us = add nsw i32 %.02240.us, -1
  %54 = icmp sgt i32 %.02240.us, 6
  br i1 %54, label %.lr.ph.preheader.i24.us, label %.lr.ph45, !llvm.loop !58

.preheader:                                       ; preds = %17
  %55 = icmp sgt i32 %1, 0
  br i1 %55, label %.lr.ph45, label %._crit_edge

.lr.ph45:                                         ; preds = %Abc_TtCanonicizePhaseVar6.exit.thread.us, %.lr.ph, %.preheader
  %.022.lcssa64 = phi i32 [ %.02237, %.preheader ], [ 5, %.lr.ph ], [ 5, %Abc_TtCanonicizePhaseVar6.exit.thread.us ]
  %.1.lcssa63 = phi i32 [ %.0, %.preheader ], [ %.0, %.lr.ph ], [ %53, %Abc_TtCanonicizePhaseVar6.exit.thread.us ]
  %56 = zext i32 %6 to i64
  %57 = zext nneg i32 %.022.lcssa64 to i64
  br label %58

58:                                               ; preds = %.lr.ph45, %Abc_TtCanonicizePhaseVar5.exit.thread
  %indvars.iv = phi i64 [ %57, %.lr.ph45 ], [ %indvars.iv.next, %Abc_TtCanonicizePhaseVar5.exit.thread ]
  %.344 = phi i32 [ %.1.lcssa63, %.lr.ph45 ], [ %86, %Abc_TtCanonicizePhaseVar5.exit.thread ]
  %59 = trunc nuw nsw i64 %indvars.iv to i32
  %60 = shl nuw nsw i32 1, %59
  %61 = getelementptr inbounds nuw [6 x i64], ptr @s_Truths6, i64 0, i64 %indvars.iv
  %62 = load i64, ptr %61, align 8, !tbaa !3
  %63 = zext nneg i32 %60 to i64
  br label %select.unfold.i

select.unfold.i:                                  ; preds = %66, %58
  %indvars.iv.i26 = phi i64 [ %56, %58 ], [ %67, %66 ]
  %64 = trunc nuw i64 %indvars.iv.i26 to i32
  %65 = icmp sgt i32 %64, 0
  br i1 %65, label %66, label %Abc_TtCanonicizePhaseVar5.exit.thread

66:                                               ; preds = %select.unfold.i
  %67 = add nsw i64 %indvars.iv.i26, -1
  %68 = getelementptr inbounds nuw i64, ptr %0, i64 %67
  %69 = load i64, ptr %68, align 8, !tbaa !3
  %70 = shl i64 %69, %63
  %71 = and i64 %70, %62
  %72 = and i64 %69, %62
  %73 = icmp eq i64 %71, %72
  br i1 %73, label %select.unfold.i, label %74, !llvm.loop !59

74:                                               ; preds = %66
  %75 = icmp ugt i64 %71, %72
  br i1 %75, label %Abc_TtCanonicizePhaseVar5.exit.thread, label %.preheader.preheader.i

.preheader.preheader.i:                           ; preds = %74
  %76 = and i64 %67, 4294967295
  br label %.preheader.i

.preheader.i:                                     ; preds = %.preheader.i, %.preheader.preheader.i
  %indvars.iv47.i = phi i64 [ %76, %.preheader.preheader.i ], [ %indvars.iv.next48.i, %.preheader.i ]
  %77 = getelementptr inbounds nuw i64, ptr %0, i64 %indvars.iv47.i
  %78 = load i64, ptr %77, align 8, !tbaa !3
  %79 = shl i64 %78, %63
  %80 = and i64 %79, %62
  %81 = and i64 %78, %62
  %82 = lshr i64 %81, %63
  %83 = or i64 %80, %82
  store i64 %83, ptr %77, align 8, !tbaa !3
  %indvars.iv.next48.i = add nsw i64 %indvars.iv47.i, -1
  %.not.i = icmp eq i64 %indvars.iv47.i, 0
  br i1 %.not.i, label %84, label %.preheader.i, !llvm.loop !60

84:                                               ; preds = %.preheader.i
  %85 = xor i32 %.344, %60
  br label %Abc_TtCanonicizePhaseVar5.exit.thread

Abc_TtCanonicizePhaseVar5.exit.thread:            ; preds = %select.unfold.i, %74, %84
  %86 = phi i32 [ %85, %84 ], [ %.344, %74 ], [ %.344, %select.unfold.i ]
  %indvars.iv.next = add nsw i64 %indvars.iv, -1
  %87 = icmp sgt i64 %indvars.iv, 0
  br i1 %87, label %58, label %._crit_edge, !llvm.loop !61

._crit_edge:                                      ; preds = %Abc_TtCanonicizePhaseVar5.exit.thread, %.preheader
  %.3.lcssa = phi i32 [ %.0, %.preheader ], [ %86, %Abc_TtCanonicizePhaseVar5.exit.thread ]
  ret i32 %.3.lcssa
}